target datalayout = "e-m:e-p270:32:32-p271:32:32-p272:64:64-i64:64-i128:128-f80:128-n8:16:32:64-S128"
target triple = "x86_64-pc-linux-gnu"

; Function Attrs: nounwind uwtable
define void @ff_mjpeg_build_huffman_codes(ptr noundef %0, ptr noundef %1, ptr noundef %2, ptr noundef %3) #0 {
  %5 = alloca ptr, align 8
  %6 = alloca ptr, align 8
  %7 = alloca ptr, align 8
  %8 = alloca ptr, align 8
  %9 = alloca i32, align 4
  %10 = alloca i32, align 4
  %11 = alloca i32, align 4
  %12 = alloca i32, align 4
  %13 = alloca i32, align 4
  %14 = alloca i32, align 4
  %15 = alloca i32, align 4
  store ptr %0, ptr %5, align 8, !tbaa !46
  store ptr %1, ptr %6, align 8, !tbaa !47
  store ptr %2, ptr %7, align 8, !tbaa !46
  store ptr %3, ptr %8, align 8, !tbaa !46
  call void @llvm.lifetime.start.p0(i64 4, ptr %9) #8
  call void @llvm.lifetime.start.p0(i64 4, ptr %10) #8
  store i32 0, ptr %9, align 4, !tbaa !22
  store i32 0, ptr %10, align 4, !tbaa !22
  call void @llvm.lifetime.start.p0(i64 4, ptr %11) #8
  store i32 1, ptr %11, align 4, !tbaa !22
  br label %16

16:                                               ; preds = %60, %4
  %17 = load i32, ptr %11, align 4, !tbaa !22
  %18 = icmp sle i32 %17, 16
  br i1 %18, label %20, label %19

19:                                               ; preds = %16
  store i32 2, ptr %12, align 4
  call void @llvm.lifetime.end.p0(i64 4, ptr %11) #8
  br label %63

20:                                               ; preds = %16
  call void @llvm.lifetime.start.p0(i64 4, ptr %13) #8
  %21 = load ptr, ptr %7, align 8, !tbaa !46
  %22 = load i32, ptr %11, align 4, !tbaa !22
  %23 = sext i32 %22 to i64
  %24 = getelementptr inbounds i8, ptr %21, i64 %23
  %25 = load i8, ptr %24, align 1, !tbaa !56
  %26 = zext i8 %25 to i32
  store i32 %26, ptr %13, align 4, !tbaa !22
  call void @llvm.lifetime.start.p0(i64 4, ptr %14) #8
  store i32 0, ptr %14, align 4, !tbaa !22
  br label %27

27:                                               ; preds = %54, %20
  %28 = load i32, ptr %14, align 4, !tbaa !22
  %29 = load i32, ptr %13, align 4, !tbaa !22
  %30 = icmp slt i32 %28, %29
  br i1 %30, label %32, label %31

31:                                               ; preds = %27
  store i32 5, ptr %12, align 4
  call void @llvm.lifetime.end.p0(i64 4, ptr %14) #8
  br label %57

32:                                               ; preds = %27
  call void @llvm.lifetime.start.p0(i64 4, ptr %15) #8
  %33 = load ptr, ptr %8, align 8, !tbaa !46
  %34 = load i32, ptr %9, align 4, !tbaa !22
  %35 = add nsw i32 %34, 1
  store i32 %35, ptr %9, align 4, !tbaa !22
  %36 = sext i32 %34 to i64
  %37 = getelementptr inbounds i8, ptr %33, i64 %36
  %38 = load i8, ptr %37, align 1, !tbaa !56
  %39 = zext i8 %38 to i32
  store i32 %39, ptr %15, align 4, !tbaa !22
  %40 = load i32, ptr %11, align 4, !tbaa !22
  %41 = trunc i32 %40 to i8
  %42 = load ptr, ptr %5, align 8, !tbaa !46
  %43 = load i32, ptr %15, align 4, !tbaa !22
  %44 = sext i32 %43 to i64
  %45 = getelementptr inbounds i8, ptr %42, i64 %44
  store i8 %41, ptr %45, align 1, !tbaa !56
  %46 = load i32, ptr %10, align 4, !tbaa !22
  %47 = trunc i32 %46 to i16
  %48 = load ptr, ptr %6, align 8, !tbaa !47
  %49 = load i32, ptr %15, align 4, !tbaa !22
  %50 = sext i32 %49 to i64
  %51 = getelementptr inbounds i16, ptr %48, i64 %50
  store i16 %47, ptr %51, align 2, !tbaa !64
  %52 = load i32, ptr %10, align 4, !tbaa !22
  %53 = add nsw i32 %52, 1
  store i32 %53, ptr %10, align 4, !tbaa !22
  call void @llvm.lifetime.end.p0(i64 4, ptr %15) #8
  br label %54

54:                                               ; preds = %32
  %55 = load i32, ptr %14, align 4, !tbaa !22
  %56 = add nsw i32 %55, 1
  store i32 %56, ptr %14, align 4, !tbaa !22
  br label %27, !llvm.loop !80

57:                                               ; preds = %31
  %58 = load i32, ptr %10, align 4, !tbaa !22
  %59 = shl i32 %58, 1
  store i32 %59, ptr %10, align 4, !tbaa !22
  call void @llvm.lifetime.end.p0(i64 4, ptr %13) #8
  br label %60

60:                                               ; preds = %57
  %61 = load i32, ptr %11, align 4, !tbaa !22
  %62 = add nsw i32 %61, 1
  store i32 %62, ptr %11, align 4, !tbaa !22
  br label %16, !llvm.loop !81

63:                                               ; preds = %19
  call void @llvm.lifetime.end.p0(i64 4, ptr %10) #8
  call void @llvm.lifetime.end.p0(i64 4, ptr %9) #8
  ret void
}