; Function Attrs: nofree norecurse nosync nounwind memory(argmem: readwrite) uwtable
define void @ff_mjpeg_build_huffman_codes(ptr noundef writeonly captures(none) %0, ptr noundef writeonly captures(none) %1, ptr noundef readonly captures(none) %2, ptr noundef readonly captures(none) %3) local_unnamed_addr #4 {
  br label %6

5:                                                ; preds = %._crit_edge
  ret void

6:                                                ; preds = %4, %._crit_edge
  %indvars.iv28 = phi i64 [ 1, %4 ], [ %indvars.iv.next29, %._crit_edge ]
  %.026 = phi i32 [ 0, %4 ], [ %.1.lcssa, %._crit_edge ]
  %.01725 = phi i16 [ 0, %4 ], [ %13, %._crit_edge ]
  %7 = getelementptr inbounds nuw i8, ptr %2, i64 %indvars.iv28
  %8 = load i8, ptr %7, align 1, !tbaa !38
  %9 = zext i8 %8 to i32
  %.not = icmp eq i8 %8, 0
  br i1 %.not, label %._crit_edge, label %.lr.ph

.lr.ph:                                           ; preds = %6
  %10 = trunc i64 %indvars.iv28 to i8
  %11 = sext i32 %.026 to i64
  br label %14

._crit_edge.loopexit:                             ; preds = %14
  %12 = trunc nsw i64 %indvars.iv.next to i32
  br label %._crit_edge

._crit_edge:                                      ; preds = %._crit_edge.loopexit, %6
  %.118.lcssa = phi i16 [ %.01725, %6 ], [ %20, %._crit_edge.loopexit ]
  %.1.lcssa = phi i32 [ %.026, %6 ], [ %12, %._crit_edge.loopexit ]
  %13 = shl i16 %.118.lcssa, 1
  %indvars.iv.next29 = add nuw nsw i64 %indvars.iv28, 1
  %exitcond30.not = icmp eq i64 %indvars.iv.next29, 17
  br i1 %exitcond30.not, label %5, label %6, !llvm.loop !64

14:                                               ; preds = %.lr.ph, %14
  %indvars.iv = phi i64 [ %11, %.lr.ph ], [ %indvars.iv.next, %14 ]
  %.01621 = phi i32 [ 0, %.lr.ph ], [ %21, %14 ]
  %.11820 = phi i16 [ %.01725, %.lr.ph ], [ %20, %14 ]
  %indvars.iv.next = add nsw i64 %indvars.iv, 1
  %15 = getelementptr inbounds i8, ptr %3, i64 %indvars.iv
  %16 = load i8, ptr %15, align 1, !tbaa !38
  %17 = zext i8 %16 to i64
  %18 = getelementptr inbounds nuw i8, ptr %0, i64 %17
  store i8 %10, ptr %18, align 1, !tbaa !38
  %19 = getelementptr inbounds nuw i16, ptr %1, i64 %17
  store i16 %.11820, ptr %19, align 2, !tbaa !52
  %20 = add i16 %.11820, 1
  %21 = add nuw nsw i32 %.01621, 1
  %exitcond.not = icmp eq i32 %21, %9
  br i1 %exitcond.not, label %._crit_edge.loopexit, label %14, !llvm.loop !65
}